; Function Attrs: nounwind uwtable
define void @dt_control_set_mouse_over_id(i32 noundef %0) local_unnamed_addr #0 {
  %2 = load ptr, ptr getelementptr inbounds nuw (i8, ptr @darktable, i64 88), align 8, !tbaa !107
  %3 = getelementptr inbounds nuw i8, ptr %2, i64 9656
  %4 = tail call i32 @pthread_mutex_lock(ptr noundef nonnull %3) #13
  %5 = getelementptr inbounds nuw i8, ptr %2, i64 932
  %6 = load i32, ptr %5, align 4, !tbaa !105
  %.not = icmp eq i32 %6, %0
  br i1 %.not, label %20, label %7

7:                                                ; preds = %1
  store i32 %0, ptr %5, align 4, !tbaa !105
  %8 = tail call i32 @pthread_mutex_unlock(ptr noundef nonnull %3) #13
  %9 = load i32, ptr getelementptr inbounds nuw (i8, ptr @darktable, i64 3128), align 8, !tbaa !147
  %10 = and i32 %9, 1
  %11 = icmp ne i32 %10, 0
  %12 = load i32, ptr getelementptr inbounds nuw (i8, ptr @darktable, i64 3132), align 4
  %13 = icmp ne i32 %12, 0
  %or.cond = select i1 %11, i1 %13, i1 false
  br i1 %or.cond, label %14, label %18

14:                                               ; preds = %7
  %15 = load i32, ptr getelementptr inbounds nuw (i8, ptr @darktable, i64 8), align 8, !tbaa !115
  %16 = and i32 %15, 1048576
  %.not7 = icmp eq i32 %16, 0
  br i1 %.not7, label %18, label %17

17:                                               ; preds = %14
  tail call void (ptr, ...) @dt_print_ext(ptr noundef nonnull @.str.39, ptr noundef nonnull @.str.49, ptr noundef nonnull @.str.41, i32 noundef 927, ptr noundef nonnull @__FUNCTION__.dt_control_set_mouse_over_id) #13
  br label %18

18:                                               ; preds = %14, %17, %7
  %19 = load ptr, ptr getelementptr inbounds nuw (i8, ptr @darktable, i64 96), align 8, !tbaa !148
  tail call void (ptr, i32, ...) @dt_control_signal_raise(ptr noundef %19, i32 noundef 0) #13
  br label %22

20:                                               ; preds = %1
  %21 = tail call i32 @pthread_mutex_unlock(ptr noundef nonnull %3) #13
  br label %22

22:                                               ; preds = %20, %18
  ret void
}